; Function Attrs: mustprogress nofree norecurse nosync nounwind willreturn memory(readwrite, inaccessiblemem: none) uwtable
define hidden void @_ZN2cv11bioinspired21ImageLogPolProjection15clearAllBuffersEv(ptr noundef nonnull readonly align 8 captures(none) dereferenceable(301) %0) local_unnamed_addr #4 align 2 {
  %2 = getelementptr inbounds nuw i8, ptr %0, i64 248
  %3 = load i64, ptr %2, align 8, !tbaa !6
  %.not3.i.i = icmp eq i64 %3, 0
  br i1 %.not3.i.i, label %_ZNSt8valarrayIfEaSERKf.exit, label %.lr.ph.i.i.preheader

.lr.ph.i.i.preheader:                             ; preds = %1
  %4 = getelementptr inbounds nuw i8, ptr %0, i64 256
  %5 = load ptr, ptr %4, align 8, !tbaa !12
  %6 = shl nuw i64 %3, 2
  tail call void @llvm.memset.p0.i64(ptr align 4 %5, i8 0, i64 %6, i1 false), !tbaa !34, !alias.scope !47
  br label %_ZNSt8valarrayIfEaSERKf.exit

_ZNSt8valarrayIfEaSERKf.exit:                     ; preds = %.lr.ph.i.i.preheader, %1
  %7 = getelementptr inbounds nuw i8, ptr %0, i64 264
  %8 = load ptr, ptr %7, align 8, !tbaa !33
  %9 = load i64, ptr %8, align 8, !tbaa !6
  %.not3.i.i1 = icmp eq i64 %9, 0
  br i1 %.not3.i.i1, label %_ZNSt8valarrayIfEaSERKf.exit6, label %.lr.ph.i.i2.preheader

.lr.ph.i.i2.preheader:                            ; preds = %_ZNSt8valarrayIfEaSERKf.exit
  %10 = getelementptr inbounds nuw i8, ptr %8, i64 8
  %11 = load ptr, ptr %10, align 8, !tbaa !12
  %12 = shl nuw i64 %9, 2
  tail call void @llvm.memset.p0.i64(ptr align 4 %11, i8 0, i64 %12, i1 false), !tbaa !34, !alias.scope !50
  br label %_ZNSt8valarrayIfEaSERKf.exit6

_ZNSt8valarrayIfEaSERKf.exit6:                    ; preds = %.lr.ph.i.i2.preheader, %_ZNSt8valarrayIfEaSERKf.exit
  %13 = getelementptr inbounds nuw i8, ptr %0, i64 16
  %14 = load i64, ptr %13, align 8, !tbaa !6
  %.not3.i.i.i.i.i = icmp eq i64 %14, 0
  br i1 %.not3.i.i.i.i.i, label %_ZN2cv11bioinspired17BasicRetinaFilter17clearOutputBufferEv.exit.i, label %.lr.ph.i.i.i.preheader.i.i

.lr.ph.i.i.i.preheader.i.i:                       ; preds = %_ZNSt8valarrayIfEaSERKf.exit6
  %15 = getelementptr inbounds nuw i8, ptr %0, i64 24
  %16 = load ptr, ptr %15, align 8, !tbaa !12
  %17 = shl nuw i64 %14, 2
  tail call void @llvm.memset.p0.i64(ptr align 4 %16, i8 0, i64 %17, i1 false), !tbaa !34, !alias.scope !53
  br label %_ZN2cv11bioinspired17BasicRetinaFilter17clearOutputBufferEv.exit.i

_ZN2cv11bioinspired17BasicRetinaFilter17clearOutputBufferEv.exit.i: ; preds = %.lr.ph.i.i.i.preheader.i.i, %_ZNSt8valarrayIfEaSERKf.exit6
  %18 = getelementptr inbounds nuw i8, ptr %0, i64 72
  %19 = load i64, ptr %18, align 8, !tbaa !6
  %.not3.i.i.i.i = icmp eq i64 %19, 0
  br i1 %.not3.i.i.i.i, label %_ZN2cv11bioinspired17BasicRetinaFilter15clearAllBuffersEv.exit, label %.lr.ph.i.i.preheader.i.i

.lr.ph.i.i.preheader.i.i:                         ; preds = %_ZN2cv11bioinspired17BasicRetinaFilter17clearOutputBufferEv.exit.i
  %20 = getelementptr inbounds nuw i8, ptr %0, i64 80
  %21 = load ptr, ptr %20, align 8, !tbaa !12
  %22 = shl nuw i64 %19, 2
  tail call void @llvm.memset.p0.i64(ptr align 4 %21, i8 0, i64 %22, i1 false), !tbaa !34, !alias.scope !56
  br label %_ZN2cv11bioinspired17BasicRetinaFilter15clearAllBuffersEv.exit

_ZN2cv11bioinspired17BasicRetinaFilter15clearAllBuffersEv.exit: ; preds = %_ZN2cv11bioinspired17BasicRetinaFilter17clearOutputBufferEv.exit.i, %.lr.ph.i.i.preheader.i.i
  ret void
}